; ModuleID = '27/399.cpp'
source_filename = "27/399.cpp"
target datalayout = "e-m:e-p270:32:32-p271:32:32-p272:64:64-i64:64-f80:128-n8:16:32:64-S128"
target triple = "x86_64-pc-linux-gnu"

%"class.std::ios_base::Init" = type { i8 }
%"class.std::basic_istream" = type { i32 (...)**, i64, %"class.std::basic_ios" }
%"class.std::basic_ios" = type { %"class.std::ios_base", %"class.std::basic_ostream"*, i8, i8, %"class.std::basic_streambuf"*, %"class.std::ctype"*, %"class.std::num_put"*, %"class.std::num_get"* }
%"class.std::ios_base" = type { i32 (...)**, i64, i64, i32, i32, i32, %"struct.std::ios_base::_Callback_list"*, %"struct.std::ios_base::_Words", [8 x %"struct.std::ios_base::_Words"], i32, %"struct.std::ios_base::_Words"*, %"class.std::locale" }
%"struct.std::ios_base::_Callback_list" = type { %"struct.std::ios_base::_Callback_list"*, void (i32, %"class.std::ios_base"*, i32)*, i32, i32 }
%"struct.std::ios_base::_Words" = type { i8*, i64 }
%"class.std::locale" = type { %"class.std::locale::_Impl"* }
%"class.std::locale::_Impl" = type { i32, %"class.std::locale::facet"**, i64, %"class.std::locale::facet"**, i8** }
%"class.std::locale::facet" = type <{ i32 (...)**, i32, [4 x i8] }>
%"class.std::basic_ostream" = type { i32 (...)**, %"class.std::basic_ios" }
%"class.std::basic_streambuf" = type { i32 (...)**, i8*, i8*, i8*, i8*, i8*, i8*, %"class.std::locale" }
%"class.std::ctype" = type <{ %"class.std::locale::facet.base", [4 x i8], %struct.__locale_struct*, i8, [7 x i8], i32*, i32*, i16*, i8, [256 x i8], [256 x i8], i8, [6 x i8] }>
%"class.std::locale::facet.base" = type <{ i32 (...)**, i32 }>
%struct.__locale_struct = type { [13 x %struct.__locale_data*], i16*, i32*, i32*, [13 x i8*] }
%struct.__locale_data = type opaque
%"class.std::num_put" = type { %"class.std::locale::facet.base", [4 x i8] }
%"class.std::num_get" = type { %"class.std::locale::facet.base", [4 x i8] }

@_ZStL8__ioinit = internal global %"class.std::ios_base::Init" zeroinitializer, align 1
@__dso_handle = external hidden global i8
@_ZSt3cin = external dso_local global %"class.std::basic_istream", align 8
@.str = private unnamed_addr constant [17 x i8] c"x1=%.5f;x2=%.5f\0A\00", align 1
@.str.1 = private unnamed_addr constant [12 x i8] c"x1=x2=%.5f\0A\00", align 1
@.str.2 = private unnamed_addr constant [29 x i8] c"x1=%.5f+%.5fi;x2=%.5f-%.5fi\0A\00", align 1
@llvm.global_ctors = appending global [1 x { i32, void ()*, i8* }] [{ i32, void ()*, i8* } { i32 65535, void ()* @_GLOBAL__sub_I_399.cpp, i8* null }]

; Function Attrs: noinline uwtable
define internal void @__cxx_global_var_init() #0 section ".text.startup" {
  call void @_ZNSt8ios_base4InitC1Ev(%"class.std::ios_base::Init"* @_ZStL8__ioinit)
  %1 = call i32 @__cxa_atexit(void (i8*)* bitcast (void (%"class.std::ios_base::Init"*)* @_ZNSt8ios_base4InitD1Ev to void (i8*)*), i8* getelementptr inbounds (%"class.std::ios_base::Init", %"class.std::ios_base::Init"* @_ZStL8__ioinit, i32 0, i32 0), i8* @__dso_handle) #3
  ret void
}

declare dso_local void @_ZNSt8ios_base4InitC1Ev(%"class.std::ios_base::Init"*) unnamed_addr #1

; Function Attrs: nounwind
declare dso_local void @_ZNSt8ios_base4InitD1Ev(%"class.std::ios_base::Init"*) unnamed_addr #2

; Function Attrs: nounwind
declare dso_local i32 @__cxa_atexit(void (i8*)*, i8*, i8*) #3

; Function Attrs: noinline norecurse uwtable
define dso_local i32 @main() #4 {
  %1 = alloca i32, align 4
  %2 = alloca i32, align 4
  %3 = alloca i32, align 4
  %4 = alloca double, align 8
  %5 = alloca double, align 8
  %6 = alloca double, align 8
  %7 = alloca double, align 8
  %8 = alloca double, align 8
  store i32 0, i32* %1, align 4
  %9 = call dereferenceable(280) %"class.std::basic_istream"* @_ZNSirsERi(%"class.std::basic_istream"* @_ZSt3cin, i32* dereferenceable(4) %2)
  store i32 0, i32* %3, align 4
  br label %10

10:                                               ; preds = %177, %0
  %11 = load i32, i32* %3, align 4
  %12 = load i32, i32* %2, align 4
  %13 = icmp slt i32 %11, %12
  br i1 %13, label %14, label %180

14:                                               ; preds = %10
  %15 = call dereferenceable(280) %"class.std::basic_istream"* @_ZNSirsERd(%"class.std::basic_istream"* @_ZSt3cin, double* dereferenceable(8) %4)
  %16 = call dereferenceable(280) %"class.std::basic_istream"* @_ZNSirsERd(%"class.std::basic_istream"* %15, double* dereferenceable(8) %5)
  %17 = call dereferenceable(280) %"class.std::basic_istream"* @_ZNSirsERd(%"class.std::basic_istream"* %16, double* dereferenceable(8) %6)
  %18 = load double, double* %5, align 8
  %19 = load double, double* %5, align 8
  %20 = fmul double %18, %19
  %21 = load double, double* %4, align 8
  %22 = fmul double 4.000000e+00, %21
  %23 = load double, double* %6, align 8
  %24 = fmul double %22, %23
  %25 = fsub double %20, %24
  %26 = fcmp ogt double %25, 0.000000e+00
  br i1 %26, label %27, label %61

27:                                               ; preds = %14
  %28 = load double, double* %5, align 8
  %29 = fneg double %28
  %30 = load double, double* %5, align 8
  %31 = load double, double* %5, align 8
  %32 = fmul double %30, %31
  %33 = load double, double* %4, align 8
  %34 = fmul double 4.000000e+00, %33
  %35 = load double, double* %6, align 8
  %36 = fmul double %34, %35
  %37 = fsub double %32, %36
  %38 = call double @sqrt(double %37) #3
  %39 = fadd double %29, %38
  %40 = load double, double* %4, align 8
  %41 = fmul double 2.000000e+00, %40
  %42 = fdiv double %39, %41
  store double %42, double* %7, align 8
  %43 = load double, double* %5, align 8
  %44 = fneg double %43
  %45 = load double, double* %5, align 8
  %46 = load double, double* %5, align 8
  %47 = fmul double %45, %46
  %48 = load double, double* %4, align 8
  %49 = fmul double 4.000000e+00, %48
  %50 = load double, double* %6, align 8
  %51 = fmul double %49, %50
  %52 = fsub double %47, %51
  %53 = call double @sqrt(double %52) #3
  %54 = fsub double %44, %53
  %55 = load double, double* %4, align 8
  %56 = fmul double 2.000000e+00, %55
  %57 = fdiv double %54, %56
  store double %57, double* %8, align 8
  %58 = load double, double* %7, align 8
  %59 = load double, double* %8, align 8
  %60 = call i32 (i8*, ...) @printf(i8* getelementptr inbounds ([17 x i8], [17 x i8]* @.str, i64 0, i64 0), double %58, double %59)
  br label %176

61:                                               ; preds = %14
  %62 = load double, double* %5, align 8
  %63 = load double, double* %5, align 8
  %64 = fmul double %62, %63
  %65 = load double, double* %4, align 8
  %66 = fmul double 4.000000e+00, %65
  %67 = load double, double* %6, align 8
  %68 = fmul double %66, %67
  %69 = fsub double %64, %68
  %70 = fcmp oeq double %69, 0.000000e+00
  br i1 %70, label %71, label %89

71:                                               ; preds = %61
  %72 = load double, double* %5, align 8
  %73 = fneg double %72
  %74 = load double, double* %5, align 8
  %75 = load double, double* %5, align 8
  %76 = fmul double %74, %75
  %77 = load double, double* %4, align 8
  %78 = fmul double 4.000000e+00, %77
  %79 = load double, double* %6, align 8
  %80 = fmul double %78, %79
  %81 = fsub double %76, %80
  %82 = call double @sqrt(double %81) #3
  %83 = fadd double %73, %82
  %84 = load double, double* %4, align 8
  %85 = fmul double 2.000000e+00, %84
  %86 = fdiv double %83, %85
  store double %86, double* %7, align 8
  %87 = load double, double* %7, align 8
  %88 = call i32 (i8*, ...) @printf(i8* getelementptr inbounds ([12 x i8], [12 x i8]* @.str.1, i64 0, i64 0), double %87)
  br label %175

89:                                               ; preds = %61
  %90 = load double, double* %5, align 8
  %91 = load double, double* %5, align 8
  %92 = fmul double %90, %91
  %93 = load double, double* %4, align 8
  %94 = fmul double 4.000000e+00, %93
  %95 = load double, double* %6, align 8
  %96 = fmul double %94, %95
  %97 = fsub double %92, %96
  %98 = fcmp olt double %97, 0.000000e+00
  br i1 %98, label %99, label %174

99:                                               ; preds = %89
  %100 = load double, double* %5, align 8
  %101 = call double @llvm.fabs.f64(double %100)
  %102 = fcmp olt double %101, 0x3EB0C6F7A0B5ED8D
  br i1 %102, label %103, label %137

103:                                              ; preds = %99
  %104 = load double, double* %5, align 8
  %105 = load double, double* %4, align 8
  %106 = fmul double 2.000000e+00, %105
  %107 = fdiv double %104, %106
  %108 = load double, double* %4, align 8
  %109 = fmul double 4.000000e+00, %108
  %110 = load double, double* %6, align 8
  %111 = fmul double %109, %110
  %112 = load double, double* %5, align 8
  %113 = load double, double* %5, align 8
  %114 = fmul double %112, %113
  %115 = fsub double %111, %114
  %116 = call double @sqrt(double %115) #3
  %117 = load double, double* %4, align 8
  %118 = fmul double 2.000000e+00, %117
  %119 = fdiv double %116, %118
  %120 = load double, double* %5, align 8
  %121 = load double, double* %4, align 8
  %122 = fmul double 2.000000e+00, %121
  %123 = fdiv double %120, %122
  %124 = load double, double* %4, align 8
  %125 = fmul double 4.000000e+00, %124
  %126 = load double, double* %6, align 8
  %127 = fmul double %125, %126
  %128 = load double, double* %5, align 8
  %129 = load double, double* %5, align 8
  %130 = fmul double %128, %129
  %131 = fsub double %127, %130
  %132 = call double @sqrt(double %131) #3
  %133 = load double, double* %4, align 8
  %134 = fmul double 2.000000e+00, %133
  %135 = fdiv double %132, %134
  %136 = call i32 (i8*, ...) @printf(i8* getelementptr inbounds ([29 x i8], [29 x i8]* @.str.2, i64 0, i64 0), double %107, double %119, double %123, double %135)
  br label %173

137:                                              ; preds = %99
  %138 = load double, double* %5, align 8
  %139 = fneg double %138
  %140 = load double, double* %4, align 8
  %141 = fmul double 2.000000e+00, %140
  %142 = fdiv double %139, %141
  %143 = load double, double* %4, align 8
  %144 = fmul double 4.000000e+00, %143
  %145 = load double, double* %6, align 8
  %146 = fmul double %144, %145
  %147 = load double, double* %5, align 8
  %148 = load double, double* %5, align 8
  %149 = fmul double %147, %148
  %150 = fsub double %146, %149
  %151 = call double @sqrt(double %150) #3
  %152 = load double, double* %4, align 8
  %153 = fmul double 2.000000e+00, %152
  %154 = fdiv double %151, %153
  %155 = load double, double* %5, align 8
  %156 = fneg double %155
  %157 = load double, double* %4, align 8
  %158 = fmul double 2.000000e+00, %157
  %159 = fdiv double %156, %158
  %160 = load double, double* %4, align 8
  %161 = fmul double 4.000000e+00, %160
  %162 = load double, double* %6, align 8
  %163 = fmul double %161, %162
  %164 = load double, double* %5, align 8
  %165 = load double, double* %5, align 8
  %166 = fmul double %164, %165
  %167 = fsub double %163, %166
  %168 = call double @sqrt(double %167) #3
  %169 = load double, double* %4, align 8
  %170 = fmul double 2.000000e+00, %169
  %171 = fdiv double %168, %170
  %172 = call i32 (i8*, ...) @printf(i8* getelementptr inbounds ([29 x i8], [29 x i8]* @.str.2, i64 0, i64 0), double %142, double %154, double %159, double %171)
  br label %173

173:                                              ; preds = %137, %103
  br label %174

174:                                              ; preds = %173, %89
  br label %175

175:                                              ; preds = %174, %71
  br label %176

176:                                              ; preds = %175, %27
  br label %177

177:                                              ; preds = %176
  %178 = load i32, i32* %3, align 4
  %179 = add nsw i32 %178, 1
  store i32 %179, i32* %3, align 4
  br label %10

180:                                              ; preds = %10
  %181 = load i32, i32* %1, align 4
  ret i32 %181
}

declare dso_local dereferenceable(280) %"class.std::basic_istream"* @_ZNSirsERi(%"class.std::basic_istream"*, i32* dereferenceable(4)) #1

declare dso_local dereferenceable(280) %"class.std::basic_istream"* @_ZNSirsERd(%"class.std::basic_istream"*, double* dereferenceable(8)) #1

; Function Attrs: nounwind
declare dso_local double @sqrt(double) #2

declare dso_local i32 @printf(i8*, ...) #1

; Function Attrs: nounwind readnone speculatable willreturn
declare double @llvm.fabs.f64(double) #5

; Function Attrs: noinline uwtable
define internal void @_GLOBAL__sub_I_399.cpp() #0 section ".text.startup" {
  call void @__cxx_global_var_init()
  ret void
}


!llvm.module.flags = !{!0}
!llvm.ident = !{!1}

!0 = !{i32 1, !"wchar_size", i32 4}
!1 = !{!"clang version 10.0.0-4ubuntu1 "}
